; Function Attrs: nounwind uwtable
define internal i32 @imap_sendf(ptr noundef %0, ptr noundef %1, ...) unnamed_addr #0 {
  %3 = alloca [1 x %struct.__va_list_tag], align 16
  %4 = getelementptr inbounds nuw i8, ptr %0, i64 24
  %5 = load ptr, ptr %4, align 8, !tbaa !98
  %6 = getelementptr inbounds nuw i8, ptr %5, i64 1332
  %7 = getelementptr inbounds nuw i8, ptr %5, i64 48
  %8 = load i64, ptr %7, align 8, !tbaa !154
  %9 = srem i64 %8, 26
  %10 = tail call i32 @curlx_sltosi(i64 noundef %9) #7
  %11 = add nsw i32 %10, 65
  %12 = getelementptr inbounds nuw i8, ptr %5, i64 1338
  %13 = load i8, ptr %12, align 2, !tbaa !155
  %14 = add i8 %13, 1
  store i8 %14, ptr %12, align 2, !tbaa !155
  %15 = zext i8 %14 to i32
  %16 = tail call i32 (ptr, i64, ptr, ...) @curl_msnprintf(ptr noundef nonnull %6, i64 noundef 5, ptr noundef nonnull @.str.4, i32 noundef %11, i32 noundef %15) #7
  %17 = getelementptr inbounds nuw i8, ptr %5, i64 1280
  tail call void @Curl_dyn_reset(ptr noundef nonnull %17) #7
  %18 = tail call i32 (ptr, ptr, ...) @Curl_dyn_addf(ptr noundef nonnull %17, ptr noundef nonnull @.str.5, ptr noundef nonnull %6, ptr noundef %1) #7
  %.not = icmp eq i32 %18, 0
  br i1 %.not, label %19, label %23

19:                                               ; preds = %2
  %20 = getelementptr inbounds nuw i8, ptr %5, i64 1088
  call void @llvm.lifetime.start.p0(i64 24, ptr nonnull %3) #7
  call void @llvm.va_start.p0(ptr nonnull %3)
  %21 = call ptr @Curl_dyn_ptr(ptr noundef nonnull %17) #7
  %22 = call i32 @Curl_pp_vsendf(ptr noundef nonnull %0, ptr noundef nonnull %20, ptr noundef %21, ptr noundef nonnull %3) #7
  call void @llvm.va_end.p0(ptr nonnull %3)
  call void @llvm.lifetime.end.p0(i64 24, ptr nonnull %3) #7
  br label %23

23:                                               ; preds = %19, %2
  %.0 = phi i32 [ %18, %2 ], [ %22, %19 ]
  ret i32 %.0
}